; Function Attrs: mustprogress uwtable
define hidden noundef zeroext i1 @_ZN3sat4drat7is_drupEjPKNS_7literalE(ptr noundef nonnull align 8 dereferenceable(664) %this, i32 noundef %n, ptr nocapture noundef readonly %c) local_unnamed_addr #3 align 2 {
entry:
  %m_inconsistent = getelementptr inbounds i8, ptr %this, i64 640
  %0 = load i8, ptr %m_inconsistent, align 8
  %1 = and i8 %0, 1
  %tobool.not = icmp eq i8 %1, 0
  br i1 %tobool.not, label %if.end, label %return

if.end:                                           ; preds = %entry
  %cmp = icmp eq i32 %n, 0
  br i1 %cmp, label %return, label %if.end3

if.end3:                                          ; preds = %if.end
  %m_units = getelementptr inbounds i8, ptr %this, i64 616
  %2 = load ptr, ptr %m_units, align 8
  %cmp.i = icmp eq ptr %2, null
  br i1 %cmp.i, label %for.body.lr.ph, label %if.end.i

if.end.i:                                         ; preds = %if.end3
  %arrayidx.i = getelementptr inbounds i8, ptr %2, i64 -4
  %3 = load i32, ptr %arrayidx.i, align 4
  br label %for.body.lr.ph

for.body.lr.ph:                                   ; preds = %if.end.i, %if.end3
  %retval.0.i = phi i32 [ %3, %if.end.i ], [ 0, %if.end3 ]
  %m_check_unsat.i = getelementptr inbounds i8, ptr %this, i64 641
  %4 = zext i32 %n to i64
  br label %for.body

for.cond12.preheader:                             ; preds = %_ZN3sat4drat16assign_propagateENS_7literalEPNS_6clauseE.exit
  %.pre = load ptr, ptr %m_units, align 8
  %cmp.i925 = icmp eq ptr %.pre, null
  br i1 %cmp.i925, label %_ZN6vectorISt4pairIN3sat7literalEPNS1_6clauseEELb0EjE6shrinkEj.exit, label %_ZNK6vectorISt4pairIN3sat7literalEPNS1_6clauseEELb0EjE4sizeEv.exit13.thread.lr.ph

_ZNK6vectorISt4pairIN3sat7literalEPNS1_6clauseEELb0EjE4sizeEv.exit13.thread.lr.ph: ; preds = %for.cond12.preheader
  %m_assignment = getelementptr inbounds i8, ptr %this, i64 632
  %5 = zext i32 %retval.0.i to i64
  br label %_ZNK6vectorISt4pairIN3sat7literalEPNS1_6clauseEELb0EjE4sizeEv.exit13.thread

for.body:                                         ; preds = %for.body.lr.ph, %_ZN3sat4drat16assign_propagateENS_7literalEPNS_6clauseE.exit
  %6 = phi i8 [ %0, %for.body.lr.ph ], [ %20, %_ZN3sat4drat16assign_propagateENS_7literalEPNS_6clauseE.exit ]
  %indvars.iv = phi i64 [ 0, %for.body.lr.ph ], [ %indvars.iv.next, %_ZN3sat4drat16assign_propagateENS_7literalEPNS_6clauseE.exit ]
  %arrayidx = getelementptr inbounds %"class.sat::literal", ptr %c, i64 %indvars.iv
  %agg.tmp7.sroa.0.0.copyload = load i32, ptr %arrayidx, align 4
  %xor.i = xor i32 %agg.tmp7.sroa.0.0.copyload, 1
  %7 = load i8, ptr %m_check_unsat.i, align 1
  %8 = and i8 %7, 1
  %tobool.not.i = icmp eq i8 %8, 0
  br i1 %tobool.not.i, label %_ZN3sat4drat16assign_propagateENS_7literalEPNS_6clauseE.exit, label %if.end.i7

if.end.i7:                                        ; preds = %for.body
  %9 = load ptr, ptr %m_units, align 8
  %cmp.i.i = icmp eq ptr %9, null
  br i1 %cmp.i.i, label %_ZNK6vectorISt4pairIN3sat7literalEPNS1_6clauseEELb0EjE4sizeEv.exit.i, label %if.end.i.i

if.end.i.i:                                       ; preds = %if.end.i7
  %arrayidx.i.i = getelementptr inbounds i8, ptr %9, i64 -4
  %10 = load i32, ptr %arrayidx.i.i, align 4
  %11 = zext i32 %10 to i64
  br label %_ZNK6vectorISt4pairIN3sat7literalEPNS1_6clauseEELb0EjE4sizeEv.exit.i

_ZNK6vectorISt4pairIN3sat7literalEPNS1_6clauseEELb0EjE4sizeEv.exit.i: ; preds = %if.end.i.i, %if.end.i7
  %retval.0.i.i = phi i64 [ %11, %if.end.i.i ], [ 0, %if.end.i7 ]
  tail call void @_ZN3sat4drat6assignENS_7literalEPNS_6clauseE(ptr noundef nonnull align 8 dereferenceable(664) %this, i32 %xor.i, ptr noundef null)
  %12 = load i8, ptr %m_inconsistent, align 8
  %13 = and i8 %12, 1
  %tobool3.not9.i = icmp eq i8 %13, 0
  br i1 %tobool3.not9.i, label %land.rhs.i, label %_ZN3sat4drat16assign_propagateENS_7literalEPNS_6clauseE.exit

land.rhs.i:                                       ; preds = %_ZNK6vectorISt4pairIN3sat7literalEPNS1_6clauseEELb0EjE4sizeEv.exit.i, %for.body.i
  %14 = phi i8 [ %18, %for.body.i ], [ %12, %_ZNK6vectorISt4pairIN3sat7literalEPNS1_6clauseEELb0EjE4sizeEv.exit.i ]
  %indvars.iv.i = phi i64 [ %indvars.iv.next.i, %for.body.i ], [ %retval.0.i.i, %_ZNK6vectorISt4pairIN3sat7literalEPNS1_6clauseEELb0EjE4sizeEv.exit.i ]
  %15 = load ptr, ptr %m_units, align 8
  %cmp.i3.i = icmp eq ptr %15, null
  br i1 %cmp.i3.i, label %_ZNK6vectorISt4pairIN3sat7literalEPNS1_6clauseEELb0EjE4sizeEv.exit7.i, label %if.end.i4.i

if.end.i4.i:                                      ; preds = %land.rhs.i
  %arrayidx.i5.i = getelementptr inbounds i8, ptr %15, i64 -4
  %16 = load i32, ptr %arrayidx.i5.i, align 4
  br label %_ZNK6vectorISt4pairIN3sat7literalEPNS1_6clauseEELb0EjE4sizeEv.exit7.i

_ZNK6vectorISt4pairIN3sat7literalEPNS1_6clauseEELb0EjE4sizeEv.exit7.i: ; preds = %if.end.i4.i, %land.rhs.i
  %retval.0.i6.i = phi i32 [ %16, %if.end.i4.i ], [ 0, %land.rhs.i ]
  %17 = zext i32 %retval.0.i6.i to i64
  %cmp.i8 = icmp ult i64 %indvars.iv.i, %17
  br i1 %cmp.i8, label %for.body.i, label %_ZN3sat4drat16assign_propagateENS_7literalEPNS_6clauseE.exit

for.body.i:                                       ; preds = %_ZNK6vectorISt4pairIN3sat7literalEPNS1_6clauseEELb0EjE4sizeEv.exit7.i
  %arrayidx.i8.i = getelementptr inbounds %"struct.std::pair.52", ptr %15, i64 %indvars.iv.i
  %agg.tmp6.sroa.0.0.copyload.i = load i32, ptr %arrayidx.i8.i, align 8
  tail call void @_ZN3sat4drat9propagateENS_7literalE(ptr noundef nonnull align 8 dereferenceable(664) %this, i32 %agg.tmp6.sroa.0.0.copyload.i)
  %indvars.iv.next.i = add nuw nsw i64 %indvars.iv.i, 1
  %18 = load i8, ptr %m_inconsistent, align 8
  %19 = and i8 %18, 1
  %tobool3.not.i = icmp eq i8 %19, 0
  br i1 %tobool3.not.i, label %land.rhs.i, label %_ZN3sat4drat16assign_propagateENS_7literalEPNS_6clauseE.exit, !llvm.loop !13

_ZN3sat4drat16assign_propagateENS_7literalEPNS_6clauseE.exit: ; preds = %_ZNK6vectorISt4pairIN3sat7literalEPNS1_6clauseEELb0EjE4sizeEv.exit7.i, %for.body.i, %for.body, %_ZNK6vectorISt4pairIN3sat7literalEPNS1_6clauseEELb0EjE4sizeEv.exit.i
  %20 = phi i8 [ %6, %for.body ], [ %12, %_ZNK6vectorISt4pairIN3sat7literalEPNS1_6clauseEELb0EjE4sizeEv.exit.i ], [ %14, %_ZNK6vectorISt4pairIN3sat7literalEPNS1_6clauseEELb0EjE4sizeEv.exit7.i ], [ %18, %for.body.i ]
  %indvars.iv.next = add nuw nsw i64 %indvars.iv, 1
  %21 = and i8 %20, 1
  %tobool5.not = icmp eq i8 %21, 0
  %cmp6 = icmp ult i64 %indvars.iv.next, %4
  %22 = and i1 %tobool5.not, %cmp6
  br i1 %22, label %for.body, label %for.cond12.preheader, !llvm.loop !21

_ZNK6vectorISt4pairIN3sat7literalEPNS1_6clauseEELb0EjE4sizeEv.exit13.thread: ; preds = %_ZNK6vectorISt4pairIN3sat7literalEPNS1_6clauseEELb0EjE4sizeEv.exit13.thread.lr.ph, %for.body16
  %indvars.iv29 = phi i64 [ %5, %_ZNK6vectorISt4pairIN3sat7literalEPNS1_6clauseEELb0EjE4sizeEv.exit13.thread.lr.ph ], [ %indvars.iv.next30, %for.body16 ]
  %23 = phi ptr [ %.pre, %_ZNK6vectorISt4pairIN3sat7literalEPNS1_6clauseEELb0EjE4sizeEv.exit13.thread.lr.ph ], [ %28, %for.body16 ]
  %arrayidx.i11 = getelementptr inbounds i8, ptr %23, i64 -4
  %24 = load i32, ptr %arrayidx.i11, align 4
  %25 = zext i32 %24 to i64
  %cmp1521 = icmp ult i64 %indvars.iv29, %25
  br i1 %cmp1521, label %for.body16, label %if.then.i

for.body16:                                       ; preds = %_ZNK6vectorISt4pairIN3sat7literalEPNS1_6clauseEELb0EjE4sizeEv.exit13.thread
  %arrayidx.i14 = getelementptr inbounds %"struct.std::pair.52", ptr %23, i64 %indvars.iv29
  %26 = load i32, ptr %arrayidx.i14, align 4
  %shr.i = lshr i32 %26, 1
  %27 = load ptr, ptr %m_assignment, align 8
  %idxprom.i15 = zext nneg i32 %shr.i to i64
  %arrayidx.i16 = getelementptr inbounds i32, ptr %27, i64 %idxprom.i15
  store i32 0, ptr %arrayidx.i16, align 4
  %indvars.iv.next30 = add nuw nsw i64 %indvars.iv29, 1
  %28 = load ptr, ptr %m_units, align 8
  %cmp.i9 = icmp eq ptr %28, null
  br i1 %cmp.i9, label %_ZN6vectorISt4pairIN3sat7literalEPNS1_6clauseEELb0EjE6shrinkEj.exit, label %_ZNK6vectorISt4pairIN3sat7literalEPNS1_6clauseEELb0EjE4sizeEv.exit13.thread, !llvm.loop !22

if.then.i:                                        ; preds = %_ZNK6vectorISt4pairIN3sat7literalEPNS1_6clauseEELb0EjE4sizeEv.exit13.thread
  %arrayidx.i11.le = getelementptr inbounds i8, ptr %23, i64 -4
  store i32 %retval.0.i, ptr %arrayidx.i11.le, align 4
  br label %_ZN6vectorISt4pairIN3sat7literalEPNS1_6clauseEELb0EjE6shrinkEj.exit

_ZN6vectorISt4pairIN3sat7literalEPNS1_6clauseEELb0EjE6shrinkEj.exit: ; preds = %for.body16, %for.cond12.preheader, %if.then.i
  %29 = load i8, ptr %m_inconsistent, align 8
  %30 = and i8 %29, 1
  %tobool26 = icmp ne i8 %30, 0
  store i8 0, ptr %m_inconsistent, align 8
  br label %return

return:                                           ; preds = %if.end, %entry, %_ZN6vectorISt4pairIN3sat7literalEPNS1_6clauseEELb0EjE6shrinkEj.exit
  %retval.0 = phi i1 [ %tobool26, %_ZN6vectorISt4pairIN3sat7literalEPNS1_6clauseEELb0EjE6shrinkEj.exit ], [ true, %entry ], [ false, %if.end ]
  ret i1 %retval.0
}